target datalayout = "e-m:e-p270:32:32-p271:32:32-p272:64:64-i64:64-i128:128-f80:128-n8:16:32:64-S128"
target triple = "x86_64-pc-linux-gnu"

@.str.4 = private unnamed_addr constant [2 x i8] c"\0A\00", align 1
@.str.5 = private unnamed_addr constant [40 x i8] c"    connwrappers [options] [selection]\0A\00", align 1
@.str.6 = private unnamed_addr constant [78 x i8] c"Wrappers are used in coarse-grain synthesis to wrap cells with smaller ports\0A\00", align 1
@.str.7 = private unnamed_addr constant [74 x i8] c"in wrapper cells with a (larger) constant port size. I.e. the upper bits\0A\00", align 1
@.str.8 = private unnamed_addr constant [80 x i8] c"of the wrapper output are signed/unsigned bit extended. This command uses this\0A\00", align 1
@.str.9 = private unnamed_addr constant [75 x i8] c"knowledge to rewire the inputs of the driven cells to match the output of\0A\00", align 1
@.str.10 = private unnamed_addr constant [19 x i8] c"the driving cell.\0A\00", align 1
@.str.11 = private unnamed_addr constant [51 x i8] c"    -signed <cell_type> <port_name> <width_param>\0A\00", align 1
@.str.12 = private unnamed_addr constant [53 x i8] c"    -unsigned <cell_type> <port_name> <width_param>\0A\00", align 1
@.str.13 = private unnamed_addr constant [63 x i8] c"        consider the specified signed/unsigned wrapper output\0A\00", align 1
@.str.14 = private unnamed_addr constant [62 x i8] c"    -port <cell_type> <port_name> <width_param> <sign_param>\0A\00", align 1
@.str.15 = private unnamed_addr constant [69 x i8] c"        use the specified parameter to decide if signed or unsigned\0A\00", align 1
@.str.16 = private unnamed_addr constant [76 x i8] c"The options -signed, -unsigned, and -port can be specified multiple times.\0A\00", align 1

; Function Attrs: mustprogress uwtable
define internal void @_ZN12_GLOBAL__N_116ConnwrappersPass4helpEv(ptr noundef nonnull align 8 dereferenceable(104) %0) unnamed_addr #4 align 2 {
  %2 = alloca ptr, align 8
  store ptr %0, ptr %2, align 8, !tbaa !6
  call void (ptr, ...) @_ZN5Yosys3logEPKcz(ptr noundef @.str.4)
  call void (ptr, ...) @_ZN5Yosys3logEPKcz(ptr noundef @.str.5)
  call void (ptr, ...) @_ZN5Yosys3logEPKcz(ptr noundef @.str.4)
  call void (ptr, ...) @_ZN5Yosys3logEPKcz(ptr noundef @.str.6)
  call void (ptr, ...) @_ZN5Yosys3logEPKcz(ptr noundef @.str.7)
  call void (ptr, ...) @_ZN5Yosys3logEPKcz(ptr noundef @.str.8)
  call void (ptr, ...) @_ZN5Yosys3logEPKcz(ptr noundef @.str.9)
  call void (ptr, ...) @_ZN5Yosys3logEPKcz(ptr noundef @.str.10)
  call void (ptr, ...) @_ZN5Yosys3logEPKcz(ptr noundef @.str.4)
  call void (ptr, ...) @_ZN5Yosys3logEPKcz(ptr noundef @.str.11)
  call void (ptr, ...) @_ZN5Yosys3logEPKcz(ptr noundef @.str.12)
  call void (ptr, ...) @_ZN5Yosys3logEPKcz(ptr noundef @.str.13)
  call void (ptr, ...) @_ZN5Yosys3logEPKcz(ptr noundef @.str.4)
  call void (ptr, ...) @_ZN5Yosys3logEPKcz(ptr noundef @.str.14)
  call void (ptr, ...) @_ZN5Yosys3logEPKcz(ptr noundef @.str.15)
  call void (ptr, ...) @_ZN5Yosys3logEPKcz(ptr noundef @.str.4)
  call void (ptr, ...) @_ZN5Yosys3logEPKcz(ptr noundef @.str.16)
  call void (ptr, ...) @_ZN5Yosys3logEPKcz(ptr noundef @.str.4)
  ret void
}